(lp0
VTCPJ17344775-2409042
p1
aVTCPJ13535979-0755079
p2
aVSSS130402-141135-282828
p3
aVSSS130329-111742-203116
p4
aVSSS130312-140859-165709
p5
aVSSS130311-111518-452917
p6
aVSSS130304-102431-192214
p7
aVSSS130304-055628-172343
p8
aVSNhunt242
p9
aVSN2010U
p10
aVSN2008S
p11
aVSN2008dx
p12
aVSN2007sv
p13
aVSN2007sj
p14
aVSN2007rj
p15
aVSN2007rg
p16
aVSN2007rd
p17
aVSN2007rc
p18
aVSN2007nb
p19
aVSN2007lr
p20
aVSN2007jy
p21
aVSN2007jv
p22
aVSN2007jc
p23
aVSN2007iq
p24
aVSN2007ii
p25
aVSN2006oz
p26
aVSN2006kg
p27
aVSN2006ju
p28
aVSN2006ga
p29
aVSN2006fs
p30
aVSN2006fb
p31
aVSN2005eo
p32
aVSN2005ea
p33
aVSN2004cy
p34
aVSN1999fs
p35
aVSN1999fg
p36
aVSN1997D
p37
aVSN1996bt
p38
aVSN1994N
p39
aVSN1992H
p40
aVSN1992C
p41
aVSN1992ah
p42
aVSN1992ac
p43
aVSN1991J
p44
aVSN1991F
p45
aVSN1991D
p46
aVSN1991C
p47
aVSN1991B
p48
aVSN1991ad
p49
aVSN1991A
p50
aVSN1990X
p51
aVSN1990V
p52
aVSN1990R
p53
aVSN1990G
p54
aVSN1990E
p55
aVSN1990ae
p56
aVSN1990aa
p57
aVSN1989C
p58
aVSN1989B
p59
aVSN1988L
p60
aVSN1988H
p61
aVSN1981B
p62
aVSN1971G
p63
aVSN1970A
p64
aVSN1969L
p65
aVSN1968M
p66
aVSN1968I
p67
aVSN1968E
p68
aVSN1966J
p69
aVSN1966G
p70
aVSN1964F
p71
aVSN1964E
p72
aVSN1962L
p73
aVSN1962J
p74
aVSN1961V
p75
aVSN1960N
p76
aVSN1957B
p77
aVSN1957A
p78
aVSN1956A
p79
aVSN1954B
p80
aVSN1954A
p81
aVSN1948B
p82
aVSN1939A
p83
aVSN1937D
p84
aVSN1937C
p85
aVSMTJ13455799-3532544
p86
aVSMT16atf
p87
aVSKY_J5271481-4716073
p88
aVQ1434.7+5444
p89
aVPTF12hqm
p90
aVPTF11qij
p91
aVPTF11kqn
p92
aVPTF11dsf
p93
aVPTF11dij
p94
aVPTF11dad
p95
aVPTF10qpf
p96
aVPTF10iya
p97
aVPTF10fqs
p98
aVPTF09ge
p99
aVPTF09djl
p100
aVPTF09axc
p101
aVPSNJ15213475-0722183
p102
aVPSNJ12393328+1525520
p103
aVPSNJ09132750+7627410
p104
aVPSNJ09093496+3307204
p105
aVPSNJ07475117-1844586
p106
aVPSNJ06120295-2149353
p107
aVPSNJ01184597+1459402
p108
aVPS16uk
p109
aVPS15dqx
p110
aVPS15ddr
p111
aVPS15dbp
p112
aVPS15cyh
p113
aVPS15cmq
p114
aVPS15cgd
p115
aVPS15br
p116
aVPS1-14pw
p117
aVPS1-14ip
p118
aVPS1-12ym
p119
aVPS1-12btz
p120
aVPS1-12agr
p121
aVOGLE16aaa
p122
aVOGLE15xt
p123
aVOGLE15xl
p124
aVOGLE15tt
p125
aVOGLE15rd
p126
aVOGLE15iy
p127
aVOGLE15ic
p128
aVOGLE15gt
p129
aVOGLE15gb
p130
aVOGLE15dv
p131
aVOGLE-2015-SN-035
p132
aVOGLE-2015-SN-020
p133
aVOGLE-2015-SN-010
p134
aVOGLE-2014-SN-189
p135
aVOGLE-2014-SN-173
p136
aVOGLE-2014-SN-155
p137
aVOGLE-2014-SN-145
p138
aVOGLE-2014-SN-131
p139
aVOGLE-2014-SN-122
p140
aVOGLE-2014-SN-111
p141
aVOGLE-2014-SN-076
p142
aVOGLE-2014-SN-052
p143
aVOGLE-2014-SN-047
p144
aVOGLE-2014-SN-012
p145
aVOGLE-2014-SN-009
p146
aVOGLE-2013-SN-138
p147
aVOGLE-2013-SN-137
p148
aVOGLE-2013-SN-131
p149
aVOGLE-2013-SN-128
p150
aVOGLE-2013-SN-103
p151
aVOGLE-2013-SN-100
p152
aVOGLE-2013-SN-090
p153
aVOGLE-2013-SN-088
p154
aVOGLE-2013-SN-050
p155
aVOGLE-2013-SN-012
p156
aVOGLE-2013-NOVA-02
p157
aVNGC772-OT1
p158
aVMLS140425-152525-191348
p159
aVMLS140220-081342+181306
p160
aVMLS140111-122630-031800
p161
aVMLS140107-065605+251444
p162
aVMLS131226-043639+143734
p163
aVMASTERJ150302.53-674306.4
p164
aVMASTERJ141023.42-431843.7
p165
aVMASTERJ085854.16-2740307
p166
aVMASTERJ081031.62+111450.2
p167
aVMASTERJ07485845-6553446
p168
aVMASTERJ053953-275546
p169
aVLSQ16bs
p170
aVLSQ15xn
p171
aVLSQ15xi
p172
aVLSQ15mj
p173
aVLSQ15in
p174
aVLSQ15hy
p175
aVLSQ15ey
p176
aVLSQ15bpg
p177
aVLSQ14zl
p178
aVLSQ14ws
p179
aVLSQ14vv
p180
aVLSQ14vr
p181
aVLSQ14uv
p182
aVLSQ14tf
p183
aVLSQ14n
p184
aVLSQ14lh
p185
aVLSQ14ii
p186
aVLSQ14gig
p187
aVLSQ14gaz
p188
aVLSQ14fzb
p189
aVLSQ14fxj
p190
aVLSQ14fum
p191
aVLSQ14fnm
p192
aVLSQ14fgo
p193
aVLSQ14efq
p194
aVLSQ14efd
p195
aVLSQ14eez
p196
aVLSQ14dvq
p197
aVLSQ14dss
p198
aVLSQ14dsj
p199
aVLSQ14doz
p200
aVLSQ14doj
p201
aVLSQ14dc
p202
aVLSQ14cx
p203
aVLSQ14ck
p204
aVLSQ14bjb
p205
aVLSQ14azl
p206
aVLSQ14axu
p207
aVLSQ14ahd
p208
aVLSQ14afa
p209
aVLSQ14abu
p210
aVLSQ14aab
p211
aVLSQ13zm
p212
aVLSQ13fp
p213
aVLSQ13dsu
p214
aVLSQ13dsf
p215
aVLSQ13doe
p216
aVLSQ13dht
p217
aVLSQ13der
p218
aVLSQ13deg
p219
aVLSQ13ddu
p220
aVLSQ13ddb
p221
aVLSQ13bxh
p222
aVLSQ13bsj
p223
aVLSQ13bpd
p224
aVLSQ13bjs
p225
aVLSQ13bbb
p226
aVLSQ13baa
p227
aVLSQ13azj
p228
aVLSQ13awl
p229
aVLSQ13avm
p230
aVLSQ13aav
p231
aVLSQ12hzo
p232
aVLSQ12hud
p233
aVLSQ12hqa
p234
aVLSQ12hot
p235
aVLSQ12hlx
p236
aVLSQ12hkd
p237
aVLSQ12hdl
p238
aVLSQ12hcu
p239
aVLSQ12hbx
p240
aVLSQ12gxv
p241
aVLSQ12gvs
p242
aVLSQ12gld
p243
aVLSQ12gla
p244
aVLSQ12gjf
p245
aVLSQ12ggx
p246
aVLSQ12gad
p247
aVLSQ12fyf
p248
aVLSQ12fww
p249
aVLSQ12ftr
p250
aVLSQ12fnm
p251
aVLSQ12flb
p252
aVLSQ12fkh
p253
aVLSQ12fjm
p254
aVLSQ12fgy
p255
aVLSQ12fgx
p256
aVLSQ12fdx
p257
aVLSQ12ezn
p258
aVLSQ12emc
p259
aVLSQ12elq
p260
aVLSQ12eij
p261
aVLSQ12ehj
p262
aVLSQ12eeq
p263
aVLSQ12ecu
p264
aVLSQ12ecb
p265
aVLSQ12dyw
p266
aVLSQ12dww
p267
aVLSQ12dvr
p268
aVLSQ12dvl
p269
aVLSQ12cbv
p270
aVLSQ12cay
p271
aVLSQ12bue
p272
aVLSQ12btv
p273
aVLSQ12btf
p274
aVLSQ12bsx
p275
aVLSQ12bqo
p276
aVLSQ12bql
p277
aViPTF14aiv
p278
aVHD56925
p279
aVHD313846
p280
aVHD313643
p281
aVHD228766
p282
aVHD214419
p283
aVHD213049
p284
aVHD211853
p285
aVHD211564
p286
aVHD195177
p287
aVHD193928
p288
aVHD193793
p289
aVHD192641
p290
aVHD192163
p291
aVHD192103
p292
aVHD191765
p293
aVHD190918
p294
aVHD190002
p295
aVHD187282
p296
aVHD186943
p297
aVHD184738
p298
aVHD177656
p299
aVHD168206
p300
aVHD165763
p301
aVGaia16afr
p302
aVGaia16acw
p303
aVG191B2B
p304
aVFeige34
p305
aVEta Carinae
p306
aVEMILIA
p307
aVCSS151221-103938+181146
p308
aVCSS141223-113342+004332
p309
aVCSS141015-212902+051800
p310
aVCSS140925-005854+181322
p311
aVCSS140914-021317-071932
p312
aVCSS140914-010107-101840
p313
aVCSS140901-215624+190642
p314
aVCSS140424-133007-212728
p315
aVCSS140421-142042+031602
p316
aVCSS140128-045040+200126
p317
aVCSS131207-082957-010201
p318
aVCSS131025-044730+235856
p319
aVCSS130905-012848-003631
p320
aVCSS130305-154128+304350
p321
aVCSS130214-131241-043429
p322
aVCSS121125-052126-165258
p323
aVCSS121004-204336-055316
p324
aVBD+332642
p325
aVBD+28d4211
p326
aVBD+262606
p327
aVBD+174708
p328
aVAT2016bls
p329
aVAT2016aja
p330
aVASASSN-15ug
p331
aVASASSN-15oi
p332
aVASASSN-15mj
p333
aVASASSN-15ek
p334
aVASASSN-14li
p335
aVASASSN-14ko
p336
aVASASSN-14gs
p337
aVASASSN-14fr
p338
aVASASSN-14fi
p339
aVASASSN-14fh
p340
aVASASSN-14ae
p341
a.